target datalayout = "e-m:e-p270:32:32-p271:32:32-p272:64:64-i64:64-i128:128-f80:128-n8:16:32:64-S128"
target triple = "x86_64-pc-linux-gnu"

%"struct.duckdb::roaring::ContainerScanState" = type { ptr, i64, i64, i64 }
%"struct.duckdb::roaring::BitsetContainerScanState" = type { %"struct.duckdb::roaring::ContainerScanState", ptr }

; Function Attrs: mustprogress nounwind uwtable
define linkonce_odr void @_ZN6duckdb7roaring18ContainerScanStateC2Emm(ptr noundef nonnull align 8 dereferenceable(32) %0, i64 noundef %1, i64 noundef %2) unnamed_addr #2 comdat align 2 {
  %4 = alloca ptr, align 8
  %5 = alloca i64, align 8
  %6 = alloca i64, align 8
  store ptr %0, ptr %4, align 8, !tbaa !204
  store i64 %1, ptr %5, align 8, !tbaa !8
  store i64 %2, ptr %6, align 8, !tbaa !8
  %7 = load ptr, ptr %4, align 8
  store ptr getelementptr inbounds inrange(-16, 40) ({ [7 x ptr] }, ptr @_ZTVN6duckdb7roaring18ContainerScanStateE, i32 0, i32 0, i32 2), ptr %7, align 8, !tbaa !242
  %8 = getelementptr inbounds nuw %"struct.duckdb::roaring::ContainerScanState", ptr %7, i32 0, i32 1
  %9 = load i64, ptr %5, align 8, !tbaa !8
  store i64 %9, ptr %8, align 8, !tbaa !455
  %10 = getelementptr inbounds nuw %"struct.duckdb::roaring::ContainerScanState", ptr %7, i32 0, i32 2
  %11 = load i64, ptr %6, align 8, !tbaa !8
  store i64 %11, ptr %10, align 8, !tbaa !206
  %12 = getelementptr inbounds nuw %"struct.duckdb::roaring::ContainerScanState", ptr %7, i32 0, i32 3
  store i64 0, ptr %12, align 8, !tbaa !208
  ret void
}

; Function Attrs: mustprogress uwtable
define void @_ZN6duckdb7roaring24BitsetContainerScanStateC2EmmPm(ptr noundef nonnull align 8 dereferenceable(40) %0, i64 noundef %1, i64 noundef %2, ptr noundef %3) unnamed_addr #0 align 2 {
  %5 = alloca ptr, align 8
  %6 = alloca i64, align 8
  %7 = alloca i64, align 8
  %8 = alloca ptr, align 8
  store ptr %0, ptr %5, align 8, !tbaa !465
  store i64 %1, ptr %6, align 8, !tbaa !8
  store i64 %2, ptr %7, align 8, !tbaa !8
  store ptr %3, ptr %8, align 8, !tbaa !10
  %9 = load ptr, ptr %5, align 8
  %10 = load i64, ptr %6, align 8, !tbaa !8
  %11 = load i64, ptr %7, align 8, !tbaa !8
  call void @_ZN6duckdb7roaring18ContainerScanStateC2Emm(ptr noundef nonnull align 8 dereferenceable(32) %9, i64 noundef %10, i64 noundef %11)
  store ptr getelementptr inbounds inrange(-16, 40) ({ [7 x ptr] }, ptr @_ZTVN6duckdb7roaring24BitsetContainerScanStateE, i32 0, i32 0, i32 2), ptr %9, align 8, !tbaa !242
  %12 = getelementptr inbounds nuw %"struct.duckdb::roaring::BitsetContainerScanState", ptr %9, i32 0, i32 1
  %13 = load ptr, ptr %8, align 8, !tbaa !10
  store ptr %13, ptr %12, align 8, !tbaa !467
  ret void
}