; Function Attrs: mustprogress nofree norecurse nosync nounwind willreturn memory(argmem: write) uwtable
define void @_ZN6duckdb7roaring24BitsetContainerScanStateC2EmmPm(ptr noundef nonnull writeonly align 8 captures(none) dereferenceable(40) initializes((0, 40)) %0, i64 noundef %1, i64 noundef %2, ptr noundef %3) unnamed_addr #6 align 2 {
  %5 = getelementptr inbounds nuw i8, ptr %0, i64 8
  store i64 %1, ptr %5, align 8, !tbaa !203
  %6 = getelementptr inbounds nuw i8, ptr %0, i64 16
  store i64 %2, ptr %6, align 8, !tbaa !184
  %7 = getelementptr inbounds nuw i8, ptr %0, i64 24
  store i64 0, ptr %7, align 8, !tbaa !186
  store ptr getelementptr inbounds nuw inrange(-16, 40) (i8, ptr @_ZTVN6duckdb7roaring24BitsetContainerScanStateE, i64 16), ptr %0, align 8, !tbaa !136
  %8 = getelementptr inbounds nuw i8, ptr %0, i64 32
  store ptr %3, ptr %8, align 8, !tbaa !433
  ret void
}